target datalayout = "e-m:e-p270:32:32-p271:32:32-p272:64:64-i64:64-i128:128-f80:128-n8:16:32:64-S128"
target triple = "x86_64-pc-linux-gnu"

@globalUtilOptind = external global i32, align 4
@.str.7 = private unnamed_addr constant [2 x i8] c"r\00", align 1
@.str.8 = private unnamed_addr constant [30 x i8] c"Cannot open input file \22%s\22. \00", align 1
@.str.9 = private unnamed_addr constant [8 x i8] c".genlib\00", align 1
@.str.10 = private unnamed_addr constant [5 x i8] c".lib\00", align 1
@.str.11 = private unnamed_addr constant [5 x i8] c".gen\00", align 1
@.str.12 = private unnamed_addr constant [3 x i8] c".g\00", align 1
@.str.13 = private unnamed_addr constant [19 x i8] c"Did you mean \22%s\22?\00", align 1
@.str.14 = private unnamed_addr constant [2 x i8] c"\0A\00", align 1
@.str.18 = private unnamed_addr constant [62 x i8] c"\09-v      : toggles enabling of verbose output [default = %s]\0A\00", align 1
@.str.19 = private unnamed_addr constant [4 x i8] c"yes\00", align 1
@.str.20 = private unnamed_addr constant [3 x i8] c"no\00", align 1
@.str.21 = private unnamed_addr constant [36 x i8] c"\09-h      : print the command usage\0A\00", align 1
@.str.35 = private unnamed_addr constant [4 x i8] c"evh\00", align 1
@.str.36 = private unnamed_addr constant [33 x i8] c"Reading box library has failed.\0A\00", align 1
@.str.37 = private unnamed_addr constant [25 x i8] c"\0Ausage: read_box [-evh]\0A\00", align 1
@.str.38 = private unnamed_addr constant [47 x i8] c"\09          read the box library from the file\0A\00", align 1
@.str.39 = private unnamed_addr constant [59 x i8] c"\09-e      : toggles reading extended format [default = %s]\0A\00", align 1

; Function Attrs: nounwind uwtable
define internal i32 @If_CommandReadBox(ptr noundef %0, i32 noundef %1, ptr noundef %2) #0 {
  %4 = alloca i32, align 4
  %5 = alloca ptr, align 8
  %6 = alloca i32, align 4
  %7 = alloca ptr, align 8
  %8 = alloca ptr, align 8
  %9 = alloca ptr, align 8
  %10 = alloca ptr, align 8
  %11 = alloca ptr, align 8
  %12 = alloca ptr, align 8
  %13 = alloca ptr, align 8
  %14 = alloca i32, align 4
  %15 = alloca i32, align 4
  %16 = alloca i32, align 4
  %17 = alloca i32, align 4
  store ptr %0, ptr %5, align 8, !tbaa !3
  store i32 %1, ptr %6, align 4, !tbaa !8
  store ptr %2, ptr %7, align 8, !tbaa !10
  call void @llvm.lifetime.start.p0(i64 8, ptr %8) #5
  call void @llvm.lifetime.start.p0(i64 8, ptr %9) #5
  call void @llvm.lifetime.start.p0(i64 8, ptr %10) #5
  call void @llvm.lifetime.start.p0(i64 8, ptr %11) #5
  call void @llvm.lifetime.start.p0(i64 8, ptr %12) #5
  call void @llvm.lifetime.start.p0(i64 8, ptr %13) #5
  call void @llvm.lifetime.start.p0(i64 4, ptr %14) #5
  call void @llvm.lifetime.start.p0(i64 4, ptr %15) #5
  call void @llvm.lifetime.start.p0(i64 4, ptr %16) #5
  %18 = load ptr, ptr %5, align 8, !tbaa !3
  %19 = call ptr @Abc_FrameReadNtk(ptr noundef %18)
  store ptr %19, ptr %12, align 8, !tbaa !12
  %20 = load ptr, ptr %5, align 8, !tbaa !3
  %21 = call ptr @Abc_FrameReadOut(ptr noundef %20)
  store ptr %21, ptr %9, align 8, !tbaa !14
  %22 = load ptr, ptr %5, align 8, !tbaa !3
  %23 = call ptr @Abc_FrameReadErr(ptr noundef %22)
  store ptr %23, ptr %10, align 8, !tbaa !14
  store i32 0, ptr %14, align 4, !tbaa !8
  store i32 1, ptr %15, align 4, !tbaa !8
  call void (...) @Extra_UtilGetoptReset()
  br label %24

24:                                               ; preds = %39, %3
  %25 = load i32, ptr %6, align 4, !tbaa !8
  %26 = load ptr, ptr %7, align 8, !tbaa !10
  %27 = call i32 @Extra_UtilGetopt(i32 noundef %25, ptr noundef %26, ptr noundef @.str.35)
  store i32 %27, ptr %16, align 4, !tbaa !8
  %28 = icmp ne i32 %27, -1
  br i1 %28, label %29, label %40

29:                                               ; preds = %24
  %30 = load i32, ptr %16, align 4, !tbaa !8
  switch i32 %30, label %38 [
    i32 101, label %31
    i32 118, label %34
    i32 104, label %37
  ]

31:                                               ; preds = %29
  %32 = load i32, ptr %14, align 4, !tbaa !8
  %33 = xor i32 %32, 1
  store i32 %33, ptr %14, align 4, !tbaa !8
  br label %39

34:                                               ; preds = %29
  %35 = load i32, ptr %15, align 4, !tbaa !8
  %36 = xor i32 %35, 1
  store i32 %36, ptr %15, align 4, !tbaa !8
  br label %39

37:                                               ; preds = %29
  br label %90

38:                                               ; preds = %29
  br label %90

39:                                               ; preds = %34, %31
  br label %24, !llvm.loop !23

40:                                               ; preds = %24
  %41 = load i32, ptr %6, align 4, !tbaa !8
  %42 = load i32, ptr @globalUtilOptind, align 4, !tbaa !8
  %43 = add nsw i32 %42, 1
  %44 = icmp ne i32 %41, %43
  br i1 %44, label %45, label %46

45:                                               ; preds = %40
  br label %90

46:                                               ; preds = %40
  %47 = load ptr, ptr %7, align 8, !tbaa !10
  %48 = load i32, ptr @globalUtilOptind, align 4, !tbaa !8
  %49 = sext i32 %48 to i64
  %50 = getelementptr inbounds ptr, ptr %47, i64 %49
  %51 = load ptr, ptr %50, align 8, !tbaa !18
  store ptr %51, ptr %13, align 8, !tbaa !18
  %52 = load ptr, ptr %13, align 8, !tbaa !18
  %53 = call noalias ptr @fopen(ptr noundef %52, ptr noundef @.str.7)
  store ptr %53, ptr %8, align 8, !tbaa !14
  %54 = icmp eq ptr %53, null
  br i1 %54, label %55, label %69

55:                                               ; preds = %46
  %56 = load ptr, ptr %10, align 8, !tbaa !14
  %57 = load ptr, ptr %13, align 8, !tbaa !18
  %58 = call i32 (ptr, ptr, ...) @fprintf(ptr noundef %56, ptr noundef @.str.8, ptr noundef %57) #5
  %59 = load ptr, ptr %13, align 8, !tbaa !18
  %60 = call ptr @Extra_FileGetSimilarName(ptr noundef %59, ptr noundef @.str.9, ptr noundef @.str.10, ptr noundef @.str.11, ptr noundef @.str.12, ptr noundef null)
  store ptr %60, ptr %13, align 8, !tbaa !18
  %61 = icmp ne ptr %60, null
  br i1 %61, label %62, label %66

62:                                               ; preds = %55
  %63 = load ptr, ptr %10, align 8, !tbaa !14
  %64 = load ptr, ptr %13, align 8, !tbaa !18
  %65 = call i32 (ptr, ptr, ...) @fprintf(ptr noundef %63, ptr noundef @.str.13, ptr noundef %64) #5
  br label %66

66:                                               ; preds = %62, %55
  %67 = load ptr, ptr %10, align 8, !tbaa !14
  %68 = call i32 (ptr, ptr, ...) @fprintf(ptr noundef %67, ptr noundef @.str.14) #5
  store i32 1, ptr %4, align 4
  store i32 1, ptr %17, align 4
  br label %107

69:                                               ; preds = %46
  %70 = load ptr, ptr %8, align 8, !tbaa !14
  %71 = call i32 @fclose(ptr noundef %70)
  %72 = load i32, ptr %14, align 4, !tbaa !8
  %73 = icmp ne i32 %72, 0
  br i1 %73, label %74, label %77

74:                                               ; preds = %69
  %75 = load ptr, ptr %13, align 8, !tbaa !18
  %76 = call ptr @If_LibBoxRead2(ptr noundef %75)
  br label %80

77:                                               ; preds = %69
  %78 = load ptr, ptr %13, align 8, !tbaa !18
  %79 = call ptr @If_LibBoxRead(ptr noundef %78)
  br label %80

80:                                               ; preds = %77, %74
  %81 = phi ptr [ %76, %74 ], [ %79, %77 ]
  store ptr %81, ptr %11, align 8, !tbaa !24
  %82 = load ptr, ptr %11, align 8, !tbaa !24
  %83 = icmp eq ptr %82, null
  br i1 %83, label %84, label %87

84:                                               ; preds = %80
  %85 = load ptr, ptr %10, align 8, !tbaa !14
  %86 = call i32 (ptr, ptr, ...) @fprintf(ptr noundef %85, ptr noundef @.str.36) #5
  br label %90

87:                                               ; preds = %80
  %88 = call ptr (...) @Abc_FrameReadLibBox()
  call void @If_LibBoxFree(ptr noundef %88)
  %89 = load ptr, ptr %11, align 8, !tbaa !24
  call void @Abc_FrameSetLibBox(ptr noundef %89)
  store i32 0, ptr %4, align 4
  store i32 1, ptr %17, align 4
  br label %107

90:                                               ; preds = %84, %45, %38, %37
  %91 = load ptr, ptr %10, align 8, !tbaa !14
  %92 = call i32 (ptr, ptr, ...) @fprintf(ptr noundef %91, ptr noundef @.str.37) #5
  %93 = load ptr, ptr %10, align 8, !tbaa !14
  %94 = call i32 (ptr, ptr, ...) @fprintf(ptr noundef %93, ptr noundef @.str.38) #5
  %95 = load ptr, ptr %10, align 8, !tbaa !14
  %96 = load i32, ptr %14, align 4, !tbaa !8
  %97 = icmp ne i32 %96, 0
  %98 = select i1 %97, ptr @.str.19, ptr @.str.20
  %99 = call i32 (ptr, ptr, ...) @fprintf(ptr noundef %95, ptr noundef @.str.39, ptr noundef %98) #5
  %100 = load ptr, ptr %10, align 8, !tbaa !14
  %101 = load i32, ptr %15, align 4, !tbaa !8
  %102 = icmp ne i32 %101, 0
  %103 = select i1 %102, ptr @.str.19, ptr @.str.20
  %104 = call i32 (ptr, ptr, ...) @fprintf(ptr noundef %100, ptr noundef @.str.18, ptr noundef %103) #5
  %105 = load ptr, ptr %10, align 8, !tbaa !14
  %106 = call i32 (ptr, ptr, ...) @fprintf(ptr noundef %105, ptr noundef @.str.21) #5
  store i32 1, ptr %4, align 4
  store i32 1, ptr %17, align 4
  br label %107

107:                                              ; preds = %90, %87, %66
  call void @llvm.lifetime.end.p0(i64 4, ptr %16) #5
  call void @llvm.lifetime.end.p0(i64 4, ptr %15) #5
  call void @llvm.lifetime.end.p0(i64 4, ptr %14) #5
  call void @llvm.lifetime.end.p0(i64 8, ptr %13) #5
  call void @llvm.lifetime.end.p0(i64 8, ptr %12) #5
  call void @llvm.lifetime.end.p0(i64 8, ptr %11) #5
  call void @llvm.lifetime.end.p0(i64 8, ptr %10) #5
  call void @llvm.lifetime.end.p0(i64 8, ptr %9) #5
  call void @llvm.lifetime.end.p0(i64 8, ptr %8) #5
  %108 = load i32, ptr %4, align 4
  ret i32 %108
}