; Function Attrs: nounwind uwtable
define internal range(i32 0, 2) i32 @If_CommandReadBox(ptr noundef %0, i32 noundef %1, ptr noundef %2) #0 {
  %4 = tail call ptr @Abc_FrameReadNtk(ptr noundef %0) #6
  %5 = tail call ptr @Abc_FrameReadOut(ptr noundef %0) #6
  %6 = tail call ptr @Abc_FrameReadErr(ptr noundef %0) #6
  tail call void (...) @Extra_UtilGetoptReset() #6
  br label %.outer

.outer:                                           ; preds = %9, %3
  %.032.ph = phi i32 [ %10, %9 ], [ 0, %3 ]
  %.031.ph = phi i32 [ %.031, %9 ], [ 1, %3 ]
  br label %7

7:                                                ; preds = %.outer, %11
  %.031 = phi i32 [ %12, %11 ], [ %.031.ph, %.outer ]
  %8 = tail call i32 @Extra_UtilGetopt(i32 noundef %1, ptr noundef %2, ptr noundef nonnull @.str.35) #6
  switch i32 %8, label %.loopexit [
    i32 -1, label %13
    i32 101, label %9
    i32 118, label %11
  ]

9:                                                ; preds = %7
  %10 = xor i32 %.032.ph, 1
  br label %.outer, !llvm.loop !13

11:                                               ; preds = %7
  %12 = xor i32 %.031, 1
  br label %7, !llvm.loop !13

13:                                               ; preds = %7
  %14 = load i32, ptr @globalUtilOptind, align 4, !tbaa !5
  %15 = add nsw i32 %14, 1
  %.not38 = icmp eq i32 %1, %15
  br i1 %.not38, label %16, label %.loopexit

16:                                               ; preds = %13
  %17 = sext i32 %14 to i64
  %18 = getelementptr inbounds ptr, ptr %2, i64 %17
  %19 = load ptr, ptr %18, align 8, !tbaa !9
  %20 = tail call noalias ptr @fopen(ptr noundef %19, ptr noundef nonnull @.str.7)
  %21 = icmp eq ptr %20, null
  br i1 %21, label %22, label %28

22:                                               ; preds = %16
  %23 = tail call i32 (ptr, ptr, ...) @fprintf(ptr noundef %6, ptr noundef nonnull @.str.8, ptr noundef %19) #6
  %24 = tail call ptr @Extra_FileGetSimilarName(ptr noundef %19, ptr noundef nonnull @.str.9, ptr noundef nonnull @.str.10, ptr noundef nonnull @.str.11, ptr noundef nonnull @.str.12, ptr noundef null) #6
  %.not40 = icmp eq ptr %24, null
  br i1 %.not40, label %27, label %25

25:                                               ; preds = %22
  %26 = tail call i32 (ptr, ptr, ...) @fprintf(ptr noundef %6, ptr noundef nonnull @.str.13, ptr noundef nonnull %24) #6
  br label %27

27:                                               ; preds = %25, %22
  %fputc = tail call i32 @fputc(i32 10, ptr %6)
  br label %48

28:                                               ; preds = %16
  %29 = tail call i32 @fclose(ptr noundef nonnull %20)
  %.not39 = icmp eq i32 %.032.ph, 0
  br i1 %.not39, label %32, label %30

30:                                               ; preds = %28
  %31 = tail call ptr @If_LibBoxRead2(ptr noundef %19) #6
  br label %34

32:                                               ; preds = %28
  %33 = tail call ptr @If_LibBoxRead(ptr noundef %19) #6
  br label %34

34:                                               ; preds = %32, %30
  %35 = phi ptr [ %31, %30 ], [ %33, %32 ]
  %36 = icmp eq ptr %35, null
  br i1 %36, label %37, label %39

37:                                               ; preds = %34
  %38 = tail call i64 @fwrite(ptr nonnull @.str.36, i64 32, i64 1, ptr %6)
  br label %.loopexit

39:                                               ; preds = %34
  %40 = tail call ptr (...) @Abc_FrameReadLibBox() #6
  tail call void @If_LibBoxFree(ptr noundef %40) #6
  tail call void @Abc_FrameSetLibBox(ptr noundef nonnull %35) #6
  br label %48

.loopexit:                                        ; preds = %7, %13, %37
  %41 = tail call i64 @fwrite(ptr nonnull @.str.37, i64 24, i64 1, ptr %6)
  %42 = tail call i64 @fwrite(ptr nonnull @.str.38, i64 46, i64 1, ptr %6)
  %.not41 = icmp eq i32 %.032.ph, 0
  %43 = select i1 %.not41, ptr @.str.20, ptr @.str.19
  %44 = tail call i32 (ptr, ptr, ...) @fprintf(ptr noundef %6, ptr noundef nonnull @.str.39, ptr noundef nonnull %43) #6
  %.not42 = icmp eq i32 %.031, 0
  %45 = select i1 %.not42, ptr @.str.20, ptr @.str.19
  %46 = tail call i32 (ptr, ptr, ...) @fprintf(ptr noundef %6, ptr noundef nonnull @.str.18, ptr noundef nonnull %45) #6
  %47 = tail call i64 @fwrite(ptr nonnull @.str.21, i64 35, i64 1, ptr %6)
  br label %48

48:                                               ; preds = %.loopexit, %39, %27
  %.0 = phi i32 [ 1, %.loopexit ], [ 1, %27 ], [ 0, %39 ]
  ret i32 %.0
}